; Function Attrs: mustprogress uwtable
define void @_ZN19OpenColorIO_v2_5dev6Config19setDefaultLumaCoefsEPKd(ptr noundef nonnull readonly align 8 captures(none) dereferenceable(8) %0, ptr noundef readonly captures(none) %1) local_unnamed_addr #4 align 2 personality ptr @__gxx_personality_v0 {
  %3 = load ptr, ptr %0, align 8, !tbaa !34
  %4 = getelementptr inbounds nuw i8, ptr %3, i64 808
  %5 = load ptr, ptr %4, align 8, !tbaa !211
  tail call void @llvm.memcpy.p0.p0.i64(ptr noundef nonnull align 8 dereferenceable(24) %5, ptr noundef nonnull align 8 dereferenceable(24) %1, i64 24, i1 false)
  %6 = load ptr, ptr %0, align 8, !tbaa !34
  %7 = getelementptr inbounds nuw i8, ptr %6, i64 872
  %8 = tail call noundef i32 @pthread_mutex_lock(ptr noundef nonnull align 8 dereferenceable(40) %7) #34
  %.not.i.i = icmp eq i32 %8, 0
  br i1 %.not.i.i, label %_ZNSt10lock_guardISt5mutexEC2ERS0_.exit, label %9

9:                                                ; preds = %2
  tail call void @_ZSt20__throw_system_errori(i32 noundef %8) #35
  unreachable

_ZNSt10lock_guardISt5mutexEC2ERS0_.exit:          ; preds = %2
  %10 = load ptr, ptr %0, align 8, !tbaa !34
  invoke void @_ZN19OpenColorIO_v2_5dev6Config4Impl13resetCacheIDsEv(ptr noundef nonnull align 8 dereferenceable(1120) %10)
          to label %11 unwind label %13

11:                                               ; preds = %_ZNSt10lock_guardISt5mutexEC2ERS0_.exit
  %12 = tail call noundef i32 @pthread_mutex_unlock(ptr noundef nonnull align 8 dereferenceable(40) %7) #34
  ret void

13:                                               ; preds = %_ZNSt10lock_guardISt5mutexEC2ERS0_.exit
  %14 = landingpad { ptr, i32 }
          cleanup
  %15 = tail call noundef i32 @pthread_mutex_unlock(ptr noundef nonnull align 8 dereferenceable(40) %7) #34
  resume { ptr, i32 } %14
}